target datalayout = "e-m:e-p270:32:32-p271:32:32-p272:64:64-i64:64-i128:128-f80:128-n8:16:32:64-S128"
target triple = "x86_64-pc-linux-gnu"

%struct.H5C_cache_entry_t = type { ptr, i64, i64, ptr, i8, ptr, i8, i8, i8, i8, i32, i8, i8, i8, i8, i8, i32, ptr, i32, i32, i32, i32, i32, i8, i8, ptr, ptr, ptr, ptr, ptr, ptr, i8, i32, i8, i64, ptr, i64, i64, i32, i8, i32, i32, i8, ptr, ptr, ptr }
%struct.H5EA_hdr_t = type { %struct.H5C_cache_entry_t, %struct.H5EA_create_t, i64, %struct.H5EA_stat_t, %struct.anon.1, i64, i64, i64, ptr, i64, i8, i64, i64, i8, i64, ptr, i64, ptr, i8, ptr, ptr }
%struct.H5EA_create_t = type { ptr, i8, i8, i8, i8, i8, i8 }
%struct.H5EA_stat_t = type { %struct.anon, %struct.anon.0 }
%struct.anon = type { i64, i64, i64 }
%struct.anon.0 = type { i64, i64, i64, i64, i64, i64 }
%struct.anon.1 = type { i64, ptr }
%struct.H5EA_sblock_t = type { %struct.H5C_cache_entry_t, i64, ptr, ptr, ptr, i64, i64, i8, ptr, ptr, i32, i64, i64, i64, i64, i64 }
%struct.H5EA_sblock_cache_ud_t = type { ptr, ptr, i32, i64 }
%struct.H5EA_sblk_info_t = type { i64, i64, i64, i64 }

@H5EA_init_g = external global i8, align 1
@H5_libterm_g = external global i8, align 1

; Function Attrs: nounwind uwtable
define internal i32 @H5EA__cache_sblock_get_initial_load_size(ptr noundef %0, ptr noundef %1) #0 {
  %3 = alloca ptr, align 8
  %4 = alloca ptr, align 8
  %5 = alloca ptr, align 8
  %6 = alloca %struct.H5EA_sblock_t, align 8
  store ptr %0, ptr %3, align 8, !tbaa !3
  store ptr %1, ptr %4, align 8, !tbaa !7
  call void @llvm.lifetime.start.p0(i64 8, ptr %5) #8
  %7 = load ptr, ptr %3, align 8, !tbaa !3
  store ptr %7, ptr %5, align 8, !tbaa !115
  call void @llvm.lifetime.start.p0(i64 368, ptr %6) #8
  %8 = load i8, ptr @H5EA_init_g, align 1, !tbaa !11, !range !13, !noundef !14
  %9 = trunc i8 %8 to i1
  br i1 %9, label %14, label %10

10:                                               ; preds = %2
  %11 = load i8, ptr @H5_libterm_g, align 1, !tbaa !11, !range !13, !noundef !14
  %12 = trunc i8 %11 to i1
  %13 = xor i1 %12, true
  br label %14

14:                                               ; preds = %10, %2
  %15 = phi i1 [ true, %2 ], [ %13, %10 ]
  %16 = xor i1 %15, true
  %17 = xor i1 %16, true
  %18 = zext i1 %17 to i32
  %19 = sext i32 %18 to i64
  %20 = call i64 @llvm.expect.i64(i64 %19, i64 1)
  %21 = icmp ne i64 %20, 0
  br i1 %21, label %22, label %103

22:                                               ; preds = %14
  call void @llvm.memset.p0.i64(ptr align 8 %6, i8 0, i64 368, i1 false)
  %23 = load ptr, ptr %5, align 8, !tbaa !115
  %24 = getelementptr inbounds nuw %struct.H5EA_sblock_cache_ud_t, ptr %23, i32 0, i32 0
  %25 = load ptr, ptr %24, align 8, !tbaa !117
  %26 = getelementptr inbounds nuw %struct.H5EA_sblock_t, ptr %6, i32 0, i32 4
  store ptr %25, ptr %26, align 8, !tbaa !119
  %27 = load ptr, ptr %5, align 8, !tbaa !115
  %28 = getelementptr inbounds nuw %struct.H5EA_sblock_cache_ud_t, ptr %27, i32 0, i32 0
  %29 = load ptr, ptr %28, align 8, !tbaa !117
  %30 = getelementptr inbounds nuw %struct.H5EA_hdr_t, ptr %29, i32 0, i32 15
  %31 = load ptr, ptr %30, align 8, !tbaa !121
  %32 = load ptr, ptr %5, align 8, !tbaa !115
  %33 = getelementptr inbounds nuw %struct.H5EA_sblock_cache_ud_t, ptr %32, i32 0, i32 2
  %34 = load i32, ptr %33, align 8, !tbaa !122
  %35 = zext i32 %34 to i64
  %36 = getelementptr inbounds nuw %struct.H5EA_sblk_info_t, ptr %31, i64 %35
  %37 = getelementptr inbounds nuw %struct.H5EA_sblk_info_t, ptr %36, i32 0, i32 0
  %38 = load i64, ptr %37, align 8, !tbaa !123
  %39 = getelementptr inbounds nuw %struct.H5EA_sblock_t, ptr %6, i32 0, i32 11
  store i64 %38, ptr %39, align 8, !tbaa !125
  %40 = load ptr, ptr %5, align 8, !tbaa !115
  %41 = getelementptr inbounds nuw %struct.H5EA_sblock_cache_ud_t, ptr %40, i32 0, i32 0
  %42 = load ptr, ptr %41, align 8, !tbaa !117
  %43 = getelementptr inbounds nuw %struct.H5EA_hdr_t, ptr %42, i32 0, i32 15
  %44 = load ptr, ptr %43, align 8, !tbaa !121
  %45 = load ptr, ptr %5, align 8, !tbaa !115
  %46 = getelementptr inbounds nuw %struct.H5EA_sblock_cache_ud_t, ptr %45, i32 0, i32 2
  %47 = load i32, ptr %46, align 8, !tbaa !122
  %48 = zext i32 %47 to i64
  %49 = getelementptr inbounds nuw %struct.H5EA_sblk_info_t, ptr %44, i64 %48
  %50 = getelementptr inbounds nuw %struct.H5EA_sblk_info_t, ptr %49, i32 0, i32 1
  %51 = load i64, ptr %50, align 8, !tbaa !126
  %52 = getelementptr inbounds nuw %struct.H5EA_sblock_t, ptr %6, i32 0, i32 12
  store i64 %51, ptr %52, align 8, !tbaa !127
  %53 = getelementptr inbounds nuw %struct.H5EA_sblock_t, ptr %6, i32 0, i32 12
  %54 = load i64, ptr %53, align 8, !tbaa !127
  %55 = load ptr, ptr %5, align 8, !tbaa !115
  %56 = getelementptr inbounds nuw %struct.H5EA_sblock_cache_ud_t, ptr %55, i32 0, i32 0
  %57 = load ptr, ptr %56, align 8, !tbaa !117
  %58 = getelementptr inbounds nuw %struct.H5EA_hdr_t, ptr %57, i32 0, i32 16
  %59 = load i64, ptr %58, align 8, !tbaa !128
  %60 = icmp ugt i64 %54, %59
  br i1 %60, label %61, label %76

61:                                               ; preds = %22
  %62 = getelementptr inbounds nuw %struct.H5EA_sblock_t, ptr %6, i32 0, i32 12
  %63 = load i64, ptr %62, align 8, !tbaa !127
  %64 = load ptr, ptr %5, align 8, !tbaa !115
  %65 = getelementptr inbounds nuw %struct.H5EA_sblock_cache_ud_t, ptr %64, i32 0, i32 0
  %66 = load ptr, ptr %65, align 8, !tbaa !117
  %67 = getelementptr inbounds nuw %struct.H5EA_hdr_t, ptr %66, i32 0, i32 16
  %68 = load i64, ptr %67, align 8, !tbaa !128
  %69 = udiv i64 %63, %68
  %70 = getelementptr inbounds nuw %struct.H5EA_sblock_t, ptr %6, i32 0, i32 13
  store i64 %69, ptr %70, align 8, !tbaa !129
  %71 = getelementptr inbounds nuw %struct.H5EA_sblock_t, ptr %6, i32 0, i32 13
  %72 = load i64, ptr %71, align 8, !tbaa !129
  %73 = add i64 %72, 7
  %74 = udiv i64 %73, 8
  %75 = getelementptr inbounds nuw %struct.H5EA_sblock_t, ptr %6, i32 0, i32 14
  store i64 %74, ptr %75, align 8, !tbaa !130
  br label %76

76:                                               ; preds = %61, %22
  %77 = getelementptr inbounds nuw %struct.H5EA_sblock_t, ptr %6, i32 0, i32 4
  %78 = load ptr, ptr %77, align 8, !tbaa !119
  %79 = getelementptr inbounds nuw %struct.H5EA_hdr_t, ptr %78, i32 0, i32 11
  %80 = load i64, ptr %79, align 8, !tbaa !77
  %81 = add i64 10, %80
  %82 = getelementptr inbounds nuw %struct.H5EA_sblock_t, ptr %6, i32 0, i32 4
  %83 = load ptr, ptr %82, align 8, !tbaa !119
  %84 = getelementptr inbounds nuw %struct.H5EA_hdr_t, ptr %83, i32 0, i32 13
  %85 = load i8, ptr %84, align 8, !tbaa !131
  %86 = zext i8 %85 to i64
  %87 = add i64 %81, %86
  %88 = getelementptr inbounds nuw %struct.H5EA_sblock_t, ptr %6, i32 0, i32 11
  %89 = load i64, ptr %88, align 8, !tbaa !125
  %90 = getelementptr inbounds nuw %struct.H5EA_sblock_t, ptr %6, i32 0, i32 14
  %91 = load i64, ptr %90, align 8, !tbaa !130
  %92 = mul i64 %89, %91
  %93 = add i64 %87, %92
  %94 = getelementptr inbounds nuw %struct.H5EA_sblock_t, ptr %6, i32 0, i32 11
  %95 = load i64, ptr %94, align 8, !tbaa !125
  %96 = getelementptr inbounds nuw %struct.H5EA_sblock_t, ptr %6, i32 0, i32 4
  %97 = load ptr, ptr %96, align 8, !tbaa !119
  %98 = getelementptr inbounds nuw %struct.H5EA_hdr_t, ptr %97, i32 0, i32 11
  %99 = load i64, ptr %98, align 8, !tbaa !77
  %100 = mul i64 %95, %99
  %101 = add i64 %93, %100
  %102 = load ptr, ptr %4, align 8, !tbaa !7
  store i64 %101, ptr %102, align 8, !tbaa !19
  br label %103

103:                                              ; preds = %76, %14
  call void @llvm.lifetime.end.p0(i64 368, ptr %6) #8
  call void @llvm.lifetime.end.p0(i64 8, ptr %5) #8
  ret i32 0
}