; Function Attrs: mustprogress nofree norecurse nosync nounwind willreturn memory(read, argmem: readwrite, inaccessiblemem: none) uwtable
define internal noundef i32 @H5EA__cache_sblock_get_initial_load_size(ptr noundef readonly captures(none) %0, ptr noundef writeonly captures(none) %1) #1 {
  %3 = load i8, ptr @H5EA_init_g, align 1, !tbaa !3, !range !7, !noundef !8
  %4 = trunc nuw i8 %3 to i1
  %5 = load i8, ptr @H5_libterm_g, align 1, !range !7
  %6 = trunc nuw i8 %5 to i1
  %7 = xor i1 %6, true
  %8 = select i1 %4, i1 true, i1 %7
  br i1 %8, label %9, label %36, !prof !9

9:                                                ; preds = %2
  %10 = load ptr, ptr %0, align 8, !tbaa !99
  %11 = getelementptr inbounds nuw i8, ptr %10, i64 440
  %12 = load ptr, ptr %11, align 8, !tbaa !102
  %13 = getelementptr inbounds nuw i8, ptr %0, i64 16
  %14 = load i32, ptr %13, align 8, !tbaa !103
  %15 = zext i32 %14 to i64
  %16 = getelementptr inbounds nuw %struct.H5EA_sblk_info_t, ptr %12, i64 %15
  %17 = load i64, ptr %16, align 8, !tbaa !104
  %18 = getelementptr inbounds nuw i8, ptr %16, i64 8
  %19 = load i64, ptr %18, align 8, !tbaa !106
  %20 = getelementptr inbounds nuw i8, ptr %10, i64 448
  %21 = load i64, ptr %20, align 8, !tbaa !107
  %22 = icmp ugt i64 %19, %21
  br i1 %22, label %23, label %27

23:                                               ; preds = %9
  %24 = udiv i64 %19, %21
  %25 = add i64 %24, 7
  %26 = lshr i64 %25, 3
  br label %27

27:                                               ; preds = %23, %9
  %.sroa.15.0 = phi i64 [ %26, %23 ], [ 0, %9 ]
  %28 = getelementptr inbounds nuw i8, ptr %10, i64 408
  %29 = load i64, ptr %28, align 8, !tbaa !64
  %30 = getelementptr inbounds nuw i8, ptr %10, i64 424
  %31 = load i8, ptr %30, align 8, !tbaa !108
  %32 = zext i8 %31 to i64
  %reass.add = add i64 %29, %.sroa.15.0
  %reass.mul = mul i64 %reass.add, %17
  %33 = add i64 %29, 10
  %34 = add i64 %33, %32
  %35 = add i64 %34, %reass.mul
  store i64 %35, ptr %1, align 8, !tbaa !15
  br label %36

36:                                               ; preds = %27, %2
  ret i32 0
}